target datalayout = "e-m:e-p270:32:32-p271:32:32-p272:64:64-i64:64-i128:128-f80:128-n8:16:32:64-S128"
target triple = "x86_64-pc-linux-gnu"

%struct.ObjectAddress = type { i32, i32, i32 }
%struct.FunctionCallInfoBaseData = type { ptr, ptr, ptr, i32, i8, i16, [0 x %struct.NullableDatum] }
%struct.NullableDatum = type { i64, i8 }
%struct.EventTriggerQueryState = type { ptr, %struct.slist_head, i8, i32, i32, i8, ptr, ptr, ptr }
%struct.slist_head = type { %struct.slist_node }
%struct.slist_node = type { ptr }
%struct.SQLDropObject = type { %struct.ObjectAddress, ptr, ptr, ptr, ptr, ptr, ptr, i8, i8, i8, %struct.slist_node }
%struct.slist_iter = type { ptr }
%struct.ReturnSetInfo = type { i32, ptr, ptr, i32, i32, i32, ptr, ptr }

@.str.2 = private unnamed_addr constant [16 x i8] c"event_trigger.c\00", align 1
@currentEventTriggerState = internal global ptr null, align 8
@.str.20 = private unnamed_addr constant [59 x i8] c"%s can only be called in a sql_drop event trigger function\00", align 1
@.str.21 = private unnamed_addr constant [35 x i8] c"pg_event_trigger_dropped_objects()\00", align 1
@__func__.pg_event_trigger_dropped_objects = private unnamed_addr constant [33 x i8] c"pg_event_trigger_dropped_objects\00", align 1

; Function Attrs: inlinehint nounwind uwtable
define internal i64 @PointerGetDatum(ptr noundef %0) #6 {
  %2 = alloca ptr, align 8
  store ptr %0, ptr %2, align 8
  %3 = load ptr, ptr %2, align 8
  %4 = ptrtoint ptr %3 to i64
  ret i64 %4
}

; Function Attrs: inlinehint nounwind uwtable
define internal i64 @BoolGetDatum(i1 noundef zeroext %0) #6 {
  %2 = alloca i8, align 1
  %3 = zext i1 %0 to i8
  store i8 %3, ptr %2, align 1
  %4 = load i8, ptr %2, align 1, !range !8, !noundef !9
  %5 = trunc i8 %4 to i1
  %6 = select i1 %5, i32 1, i32 0
  %7 = sext i32 %6 to i64
  ret i64 %7
}

; Function Attrs: inlinehint nounwind uwtable
define internal i64 @Int32GetDatum(i32 noundef %0) #6 {
  %2 = alloca i32, align 4
  store i32 %0, ptr %2, align 4
  %3 = load i32, ptr %2, align 4
  %4 = sext i32 %3 to i64
  ret i64 %4
}

; Function Attrs: inlinehint nounwind uwtable
define internal i64 @ObjectIdGetDatum(i32 noundef %0) #6 {
  %2 = alloca i32, align 4
  store i32 %0, ptr %2, align 4
  %3 = load i32, ptr %2, align 4
  %4 = zext i32 %3 to i64
  ret i64 %4
}

; Function Attrs: nounwind uwtable
define dso_local i64 @pg_event_trigger_dropped_objects(ptr noundef %0) #0 {
  %2 = alloca ptr, align 8
  %3 = alloca ptr, align 8
  %4 = alloca %struct.slist_iter, align 8
  %5 = alloca i32, align 4
  %6 = alloca i32, align 4
  %7 = alloca ptr, align 8
  %8 = alloca i32, align 4
  %9 = alloca [12 x i64], align 16
  %10 = alloca [12 x i8], align 1
  %11 = alloca i32, align 4
  %12 = alloca i32, align 4
  store ptr %0, ptr %2, align 8
  call void @llvm.lifetime.start.p0(i64 8, ptr %3) #10
  %13 = load ptr, ptr %2, align 8
  %14 = getelementptr inbounds nuw %struct.FunctionCallInfoBaseData, ptr %13, i32 0, i32 2
  %15 = load ptr, ptr %14, align 8
  store ptr %15, ptr %3, align 8
  call void @llvm.lifetime.start.p0(i64 8, ptr %4) #10
  %16 = load ptr, ptr @currentEventTriggerState, align 8
  %17 = icmp ne ptr %16, null
  br i1 %17, label %18, label %23

18:                                               ; preds = %1
  %19 = load ptr, ptr @currentEventTriggerState, align 8
  %20 = getelementptr inbounds nuw %struct.EventTriggerQueryState, ptr %19, i32 0, i32 2
  %21 = load i8, ptr %20, align 8, !range !8, !noundef !9
  %22 = trunc i8 %21 to i1
  br i1 %22, label %35, label %23

23:                                               ; preds = %18, %1
  br label %24

24:                                               ; preds = %23
  br i1 true, label %25, label %27

25:                                               ; preds = %24
  %26 = call zeroext i1 @errstart_cold(i32 noundef 21, ptr noundef null) #11
  br i1 %26, label %29, label %32

27:                                               ; preds = %24
  %28 = call zeroext i1 @errstart(i32 noundef 21, ptr noundef null)
  br i1 %28, label %29, label %32

29:                                               ; preds = %27, %25
  %30 = call i32 @errcode(i32 noundef 50463299)
  %31 = call i32 (ptr, ...) @errmsg(ptr noundef @.str.20, ptr noundef @.str.21)
  call void @errfinish(ptr noundef @.str.2, i32 noundef 1405, ptr noundef @__func__.pg_event_trigger_dropped_objects)
  br label %32

32:                                               ; preds = %29, %27, %25
  unreachable

33:                                               ; No predecessors!
  br label %34

34:                                               ; preds = %33
  br label %35

35:                                               ; preds = %34, %18
  %36 = load ptr, ptr %2, align 8
  call void @InitMaterializedSRF(ptr noundef %36, i32 noundef 0)
  br label %37

37:                                               ; preds = %35
  br label %38

38:                                               ; preds = %37
  br label %39

39:                                               ; preds = %38
  store i32 1, ptr %5, align 4
  br label %40

40:                                               ; preds = %39
  br label %41

41:                                               ; preds = %40
  br label %42

42:                                               ; preds = %41
  store i32 1, ptr %6, align 4
  %43 = load ptr, ptr @currentEventTriggerState, align 8
  %44 = getelementptr inbounds nuw %struct.EventTriggerQueryState, ptr %43, i32 0, i32 1
  %45 = getelementptr inbounds nuw %struct.slist_head, ptr %44, i32 0, i32 0
  %46 = getelementptr inbounds nuw %struct.slist_node, ptr %45, i32 0, i32 0
  %47 = load ptr, ptr %46, align 8
  %48 = getelementptr inbounds nuw %struct.slist_iter, ptr %4, i32 0, i32 0
  store ptr %47, ptr %48, align 8
  br label %49

49:                                               ; preds = %240, %42
  %50 = getelementptr inbounds nuw %struct.slist_iter, ptr %4, i32 0, i32 0
  %51 = load ptr, ptr %50, align 8
  %52 = icmp ne ptr %51, null
  br i1 %52, label %53, label %246

53:                                               ; preds = %49
  call void @llvm.lifetime.start.p0(i64 8, ptr %7) #10
  call void @llvm.lifetime.start.p0(i64 4, ptr %8) #10
  store i32 0, ptr %8, align 4
  call void @llvm.lifetime.start.p0(i64 96, ptr %9) #10
  call void @llvm.memset.p0.i64(ptr align 16 %9, i8 0, i64 96, i1 false)
  call void @llvm.lifetime.start.p0(i64 12, ptr %10) #10
  call void @llvm.memset.p0.i64(ptr align 1 %10, i8 0, i64 12, i1 false)
  br label %54

54:                                               ; preds = %53
  br label %55

55:                                               ; preds = %54
  br label %56

56:                                               ; preds = %55
  store i32 1, ptr %11, align 4
  br label %57

57:                                               ; preds = %56
  br label %58

58:                                               ; preds = %57
  br label %59

59:                                               ; preds = %58
  store i32 1, ptr %12, align 4
  %60 = getelementptr inbounds nuw %struct.slist_iter, ptr %4, i32 0, i32 0
  %61 = load ptr, ptr %60, align 8
  %62 = getelementptr inbounds i8, ptr %61, i64 -72
  store ptr %62, ptr %7, align 8
  %63 = load ptr, ptr %7, align 8
  %64 = getelementptr inbounds nuw %struct.SQLDropObject, ptr %63, i32 0, i32 0
  %65 = getelementptr inbounds nuw %struct.ObjectAddress, ptr %64, i32 0, i32 0
  %66 = load i32, ptr %65, align 8
  %67 = call i64 @ObjectIdGetDatum(i32 noundef %66)
  %68 = load i32, ptr %8, align 4
  %69 = add i32 %68, 1
  store i32 %69, ptr %8, align 4
  %70 = sext i32 %68 to i64
  %71 = getelementptr inbounds [12 x i64], ptr %9, i64 0, i64 %70
  store i64 %67, ptr %71, align 8
  %72 = load ptr, ptr %7, align 8
  %73 = getelementptr inbounds nuw %struct.SQLDropObject, ptr %72, i32 0, i32 0
  %74 = getelementptr inbounds nuw %struct.ObjectAddress, ptr %73, i32 0, i32 1
  %75 = load i32, ptr %74, align 4
  %76 = call i64 @ObjectIdGetDatum(i32 noundef %75)
  %77 = load i32, ptr %8, align 4
  %78 = add i32 %77, 1
  store i32 %78, ptr %8, align 4
  %79 = sext i32 %77 to i64
  %80 = getelementptr inbounds [12 x i64], ptr %9, i64 0, i64 %79
  store i64 %76, ptr %80, align 8
  %81 = load ptr, ptr %7, align 8
  %82 = getelementptr inbounds nuw %struct.SQLDropObject, ptr %81, i32 0, i32 0
  %83 = getelementptr inbounds nuw %struct.ObjectAddress, ptr %82, i32 0, i32 2
  %84 = load i32, ptr %83, align 8
  %85 = call i64 @Int32GetDatum(i32 noundef %84)
  %86 = load i32, ptr %8, align 4
  %87 = add i32 %86, 1
  store i32 %87, ptr %8, align 4
  %88 = sext i32 %86 to i64
  %89 = getelementptr inbounds [12 x i64], ptr %9, i64 0, i64 %88
  store i64 %85, ptr %89, align 8
  %90 = load ptr, ptr %7, align 8
  %91 = getelementptr inbounds nuw %struct.SQLDropObject, ptr %90, i32 0, i32 7
  %92 = load i8, ptr %91, align 8, !range !8, !noundef !9
  %93 = trunc i8 %92 to i1
  %94 = call i64 @BoolGetDatum(i1 noundef zeroext %93)
  %95 = load i32, ptr %8, align 4
  %96 = add i32 %95, 1
  store i32 %96, ptr %8, align 4
  %97 = sext i32 %95 to i64
  %98 = getelementptr inbounds [12 x i64], ptr %9, i64 0, i64 %97
  store i64 %94, ptr %98, align 8
  %99 = load ptr, ptr %7, align 8
  %100 = getelementptr inbounds nuw %struct.SQLDropObject, ptr %99, i32 0, i32 8
  %101 = load i8, ptr %100, align 1, !range !8, !noundef !9
  %102 = trunc i8 %101 to i1
  %103 = call i64 @BoolGetDatum(i1 noundef zeroext %102)
  %104 = load i32, ptr %8, align 4
  %105 = add i32 %104, 1
  store i32 %105, ptr %8, align 4
  %106 = sext i32 %104 to i64
  %107 = getelementptr inbounds [12 x i64], ptr %9, i64 0, i64 %106
  store i64 %103, ptr %107, align 8
  %108 = load ptr, ptr %7, align 8
  %109 = getelementptr inbounds nuw %struct.SQLDropObject, ptr %108, i32 0, i32 9
  %110 = load i8, ptr %109, align 2, !range !8, !noundef !9
  %111 = trunc i8 %110 to i1
  %112 = call i64 @BoolGetDatum(i1 noundef zeroext %111)
  %113 = load i32, ptr %8, align 4
  %114 = add i32 %113, 1
  store i32 %114, ptr %8, align 4
  %115 = sext i32 %113 to i64
  %116 = getelementptr inbounds [12 x i64], ptr %9, i64 0, i64 %115
  store i64 %112, ptr %116, align 8
  %117 = load ptr, ptr %7, align 8
  %118 = getelementptr inbounds nuw %struct.SQLDropObject, ptr %117, i32 0, i32 4
  %119 = load ptr, ptr %118, align 8
  %120 = call ptr @cstring_to_text(ptr noundef %119)
  %121 = call i64 @PointerGetDatum(ptr noundef %120)
  %122 = load i32, ptr %8, align 4
  %123 = add i32 %122, 1
  store i32 %123, ptr %8, align 4
  %124 = sext i32 %122 to i64
  %125 = getelementptr inbounds [12 x i64], ptr %9, i64 0, i64 %124
  store i64 %121, ptr %125, align 8
  %126 = load ptr, ptr %7, align 8
  %127 = getelementptr inbounds nuw %struct.SQLDropObject, ptr %126, i32 0, i32 1
  %128 = load ptr, ptr %127, align 8
  %129 = icmp ne ptr %128, null
  br i1 %129, label %130, label %140

130:                                              ; preds = %59
  %131 = load ptr, ptr %7, align 8
  %132 = getelementptr inbounds nuw %struct.SQLDropObject, ptr %131, i32 0, i32 1
  %133 = load ptr, ptr %132, align 8
  %134 = call ptr @cstring_to_text(ptr noundef %133)
  %135 = call i64 @PointerGetDatum(ptr noundef %134)
  %136 = load i32, ptr %8, align 4
  %137 = add i32 %136, 1
  store i32 %137, ptr %8, align 4
  %138 = sext i32 %136 to i64
  %139 = getelementptr inbounds [12 x i64], ptr %9, i64 0, i64 %138
  store i64 %135, ptr %139, align 8
  br label %145

140:                                              ; preds = %59
  %141 = load i32, ptr %8, align 4
  %142 = add i32 %141, 1
  store i32 %142, ptr %8, align 4
  %143 = sext i32 %141 to i64
  %144 = getelementptr inbounds [12 x i8], ptr %10, i64 0, i64 %143
  store i8 1, ptr %144, align 1
  br label %145

145:                                              ; preds = %140, %130
  %146 = load ptr, ptr %7, align 8
  %147 = getelementptr inbounds nuw %struct.SQLDropObject, ptr %146, i32 0, i32 2
  %148 = load ptr, ptr %147, align 8
  %149 = icmp ne ptr %148, null
  br i1 %149, label %150, label %160

150:                                              ; preds = %145
  %151 = load ptr, ptr %7, align 8
  %152 = getelementptr inbounds nuw %struct.SQLDropObject, ptr %151, i32 0, i32 2
  %153 = load ptr, ptr %152, align 8
  %154 = call ptr @cstring_to_text(ptr noundef %153)
  %155 = call i64 @PointerGetDatum(ptr noundef %154)
  %156 = load i32, ptr %8, align 4
  %157 = add i32 %156, 1
  store i32 %157, ptr %8, align 4
  %158 = sext i32 %156 to i64
  %159 = getelementptr inbounds [12 x i64], ptr %9, i64 0, i64 %158
  store i64 %155, ptr %159, align 8
  br label %165

160:                                              ; preds = %145
  %161 = load i32, ptr %8, align 4
  %162 = add i32 %161, 1
  store i32 %162, ptr %8, align 4
  %163 = sext i32 %161 to i64
  %164 = getelementptr inbounds [12 x i8], ptr %10, i64 0, i64 %163
  store i8 1, ptr %164, align 1
  br label %165

165:                                              ; preds = %160, %150
  %166 = load ptr, ptr %7, align 8
  %167 = getelementptr inbounds nuw %struct.SQLDropObject, ptr %166, i32 0, i32 3
  %168 = load ptr, ptr %167, align 8
  %169 = icmp ne ptr %168, null
  br i1 %169, label %170, label %180

170:                                              ; preds = %165
  %171 = load ptr, ptr %7, align 8
  %172 = getelementptr inbounds nuw %struct.SQLDropObject, ptr %171, i32 0, i32 3
  %173 = load ptr, ptr %172, align 8
  %174 = call ptr @cstring_to_text(ptr noundef %173)
  %175 = call i64 @PointerGetDatum(ptr noundef %174)
  %176 = load i32, ptr %8, align 4
  %177 = add i32 %176, 1
  store i32 %177, ptr %8, align 4
  %178 = sext i32 %176 to i64
  %179 = getelementptr inbounds [12 x i64], ptr %9, i64 0, i64 %178
  store i64 %175, ptr %179, align 8
  br label %185

180:                                              ; preds = %165
  %181 = load i32, ptr %8, align 4
  %182 = add i32 %181, 1
  store i32 %182, ptr %8, align 4
  %183 = sext i32 %181 to i64
  %184 = getelementptr inbounds [12 x i8], ptr %10, i64 0, i64 %183
  store i8 1, ptr %184, align 1
  br label %185

185:                                              ; preds = %180, %170
  %186 = load ptr, ptr %7, align 8
  %187 = getelementptr inbounds nuw %struct.SQLDropObject, ptr %186, i32 0, i32 5
  %188 = load ptr, ptr %187, align 8
  %189 = icmp ne ptr %188, null
  br i1 %189, label %190, label %222

190:                                              ; preds = %185
  %191 = load ptr, ptr %7, align 8
  %192 = getelementptr inbounds nuw %struct.SQLDropObject, ptr %191, i32 0, i32 5
  %193 = load ptr, ptr %192, align 8
  %194 = call ptr @strlist_to_textarray(ptr noundef %193)
  %195 = call i64 @PointerGetDatum(ptr noundef %194)
  %196 = load i32, ptr %8, align 4
  %197 = add i32 %196, 1
  store i32 %197, ptr %8, align 4
  %198 = sext i32 %196 to i64
  %199 = getelementptr inbounds [12 x i64], ptr %9, i64 0, i64 %198
  store i64 %195, ptr %199, align 8
  %200 = load ptr, ptr %7, align 8
  %201 = getelementptr inbounds nuw %struct.SQLDropObject, ptr %200, i32 0, i32 6
  %202 = load ptr, ptr %201, align 8
  %203 = icmp ne ptr %202, null
  br i1 %203, label %204, label %214

204:                                              ; preds = %190
  %205 = load ptr, ptr %7, align 8
  %206 = getelementptr inbounds nuw %struct.SQLDropObject, ptr %205, i32 0, i32 6
  %207 = load ptr, ptr %206, align 8
  %208 = call ptr @strlist_to_textarray(ptr noundef %207)
  %209 = call i64 @PointerGetDatum(ptr noundef %208)
  %210 = load i32, ptr %8, align 4
  %211 = add i32 %210, 1
  store i32 %211, ptr %8, align 4
  %212 = sext i32 %210 to i64
  %213 = getelementptr inbounds [12 x i64], ptr %9, i64 0, i64 %212
  store i64 %209, ptr %213, align 8
  br label %221

214:                                              ; preds = %190
  %215 = call ptr @construct_empty_array(i32 noundef 25)
  %216 = call i64 @PointerGetDatum(ptr noundef %215)
  %217 = load i32, ptr %8, align 4
  %218 = add i32 %217, 1
  store i32 %218, ptr %8, align 4
  %219 = sext i32 %217 to i64
  %220 = getelementptr inbounds [12 x i64], ptr %9, i64 0, i64 %219
  store i64 %216, ptr %220, align 8
  br label %221

221:                                              ; preds = %214, %204
  br label %231

222:                                              ; preds = %185
  %223 = load i32, ptr %8, align 4
  %224 = add i32 %223, 1
  store i32 %224, ptr %8, align 4
  %225 = sext i32 %223 to i64
  %226 = getelementptr inbounds [12 x i8], ptr %10, i64 0, i64 %225
  store i8 1, ptr %226, align 1
  %227 = load i32, ptr %8, align 4
  %228 = add i32 %227, 1
  store i32 %228, ptr %8, align 4
  %229 = sext i32 %227 to i64
  %230 = getelementptr inbounds [12 x i8], ptr %10, i64 0, i64 %229
  store i8 1, ptr %230, align 1
  br label %231

231:                                              ; preds = %222, %221
  %232 = load ptr, ptr %3, align 8
  %233 = getelementptr inbounds nuw %struct.ReturnSetInfo, ptr %232, i32 0, i32 6
  %234 = load ptr, ptr %233, align 8
  %235 = load ptr, ptr %3, align 8
  %236 = getelementptr inbounds nuw %struct.ReturnSetInfo, ptr %235, i32 0, i32 7
  %237 = load ptr, ptr %236, align 8
  %238 = getelementptr inbounds [12 x i64], ptr %9, i64 0, i64 0
  %239 = getelementptr inbounds [12 x i8], ptr %10, i64 0, i64 0
  call void @tuplestore_putvalues(ptr noundef %234, ptr noundef %237, ptr noundef %238, ptr noundef %239)
  call void @llvm.lifetime.end.p0(i64 12, ptr %10) #10
  call void @llvm.lifetime.end.p0(i64 96, ptr %9) #10
  call void @llvm.lifetime.end.p0(i64 4, ptr %8) #10
  call void @llvm.lifetime.end.p0(i64 8, ptr %7) #10
  br label %240

240:                                              ; preds = %231
  %241 = getelementptr inbounds nuw %struct.slist_iter, ptr %4, i32 0, i32 0
  %242 = load ptr, ptr %241, align 8
  %243 = getelementptr inbounds nuw %struct.slist_node, ptr %242, i32 0, i32 0
  %244 = load ptr, ptr %243, align 8
  %245 = getelementptr inbounds nuw %struct.slist_iter, ptr %4, i32 0, i32 0
  store ptr %244, ptr %245, align 8
  br label %49, !llvm.loop !12

246:                                              ; preds = %49
  call void @llvm.lifetime.end.p0(i64 8, ptr %4) #10
  call void @llvm.lifetime.end.p0(i64 8, ptr %3) #10
  ret i64 0
}