; Function Attrs: nounwind uwtable
define dso_local noundef i64 @pg_event_trigger_dropped_objects(ptr noundef %0) local_unnamed_addr #0 {
  %2 = alloca [12 x i64], align 16
  %3 = alloca [12 x i8], align 1
  %4 = getelementptr inbounds nuw i8, ptr %0, i64 16
  %5 = load ptr, ptr %4, align 8
  %6 = load ptr, ptr @currentEventTriggerState, align 8
  %.not = icmp eq ptr %6, null
  br i1 %.not, label %11, label %7

7:                                                ; preds = %1
  %8 = getelementptr inbounds nuw i8, ptr %6, i64 16
  %9 = load i8, ptr %8, align 8, !range !9, !noundef !10
  %10 = trunc nuw i8 %9 to i1
  br i1 %10, label %15, label %11

11:                                               ; preds = %7, %1
  %12 = tail call zeroext i1 @errstart_cold(i32 noundef 21, ptr noundef null) #17
  tail call void @llvm.assume(i1 %12)
  %13 = tail call i32 @errcode(i32 noundef 50463299) #16
  %14 = tail call i32 (ptr, ...) @errmsg(ptr noundef nonnull @.str.20, ptr noundef nonnull @.str.21) #16
  tail call void @errfinish(ptr noundef nonnull @.str.2, i32 noundef 1405, ptr noundef nonnull @__func__.pg_event_trigger_dropped_objects) #16
  unreachable

15:                                               ; preds = %7
  tail call void @InitMaterializedSRF(ptr noundef nonnull %0, i32 noundef 0) #16
  %16 = load ptr, ptr @currentEventTriggerState, align 8
  %17 = getelementptr inbounds nuw i8, ptr %16, i64 8
  %.sroa.0.052 = load ptr, ptr %17, align 8
  %.not4653 = icmp eq ptr %.sroa.0.052, null
  br i1 %.not4653, label %._crit_edge, label %.lr.ph

.lr.ph:                                           ; preds = %15
  %18 = getelementptr inbounds nuw i8, ptr %2, i64 8
  %19 = getelementptr inbounds nuw i8, ptr %2, i64 16
  %20 = getelementptr inbounds nuw i8, ptr %2, i64 24
  %21 = getelementptr inbounds nuw i8, ptr %2, i64 32
  %22 = getelementptr inbounds nuw i8, ptr %2, i64 40
  %23 = getelementptr inbounds nuw i8, ptr %2, i64 48
  %24 = getelementptr inbounds nuw i8, ptr %2, i64 56
  %25 = getelementptr inbounds nuw i8, ptr %3, i64 7
  %26 = getelementptr inbounds nuw i8, ptr %2, i64 64
  %27 = getelementptr inbounds nuw i8, ptr %3, i64 8
  %28 = getelementptr inbounds nuw i8, ptr %2, i64 72
  %29 = getelementptr inbounds nuw i8, ptr %3, i64 9
  %30 = getelementptr inbounds nuw i8, ptr %2, i64 80
  %31 = getelementptr inbounds nuw i8, ptr %2, i64 88
  %32 = getelementptr inbounds nuw i8, ptr %3, i64 10
  %33 = getelementptr inbounds nuw i8, ptr %3, i64 11
  %34 = getelementptr inbounds nuw i8, ptr %5, i64 40
  %35 = getelementptr inbounds nuw i8, ptr %5, i64 48
  br label %36

36:                                               ; preds = %.lr.ph, %94
  %.sroa.0.054 = phi ptr [ %.sroa.0.052, %.lr.ph ], [ %.sroa.0.0, %94 ]
  call void @llvm.lifetime.start.p0(i64 96, ptr nonnull %2) #16
  call void @llvm.memset.p0.i64(ptr noundef nonnull align 16 dereferenceable(96) %2, i8 0, i64 96, i1 false)
  call void @llvm.lifetime.start.p0(i64 12, ptr nonnull %3) #16
  call void @llvm.memset.p0.i64(ptr noundef nonnull align 1 dereferenceable(12) %3, i8 0, i64 12, i1 false)
  %37 = getelementptr inbounds i8, ptr %.sroa.0.054, i64 -72
  %38 = load i32, ptr %37, align 8
  %39 = zext i32 %38 to i64
  store i64 %39, ptr %2, align 16
  %40 = getelementptr inbounds i8, ptr %.sroa.0.054, i64 -68
  %41 = load i32, ptr %40, align 4
  %42 = zext i32 %41 to i64
  store i64 %42, ptr %18, align 8
  %43 = getelementptr inbounds i8, ptr %.sroa.0.054, i64 -64
  %44 = load i32, ptr %43, align 8
  %45 = sext i32 %44 to i64
  store i64 %45, ptr %19, align 16
  %46 = getelementptr inbounds i8, ptr %.sroa.0.054, i64 -8
  %47 = load i8, ptr %46, align 8, !range !9, !noundef !10
  %48 = zext nneg i8 %47 to i64
  store i64 %48, ptr %20, align 8
  %49 = getelementptr inbounds i8, ptr %.sroa.0.054, i64 -7
  %50 = load i8, ptr %49, align 1, !range !9, !noundef !10
  %51 = zext nneg i8 %50 to i64
  store i64 %51, ptr %21, align 16
  %52 = getelementptr inbounds i8, ptr %.sroa.0.054, i64 -6
  %53 = load i8, ptr %52, align 2, !range !9, !noundef !10
  %54 = zext nneg i8 %53 to i64
  store i64 %54, ptr %22, align 8
  %55 = getelementptr inbounds i8, ptr %.sroa.0.054, i64 -32
  %56 = load ptr, ptr %55, align 8
  %57 = call ptr @cstring_to_text(ptr noundef %56) #16
  %58 = ptrtoint ptr %57 to i64
  store i64 %58, ptr %23, align 16
  %59 = getelementptr inbounds i8, ptr %.sroa.0.054, i64 -56
  %60 = load ptr, ptr %59, align 8
  %.not47 = icmp eq ptr %60, null
  br i1 %.not47, label %64, label %61

61:                                               ; preds = %36
  %62 = call ptr @cstring_to_text(ptr noundef nonnull %60) #16
  %63 = ptrtoint ptr %62 to i64
  store i64 %63, ptr %24, align 8
  br label %65

64:                                               ; preds = %36
  store i8 1, ptr %25, align 1
  br label %65

65:                                               ; preds = %64, %61
  %66 = getelementptr inbounds i8, ptr %.sroa.0.054, i64 -48
  %67 = load ptr, ptr %66, align 8
  %.not48 = icmp eq ptr %67, null
  br i1 %.not48, label %71, label %68

68:                                               ; preds = %65
  %69 = call ptr @cstring_to_text(ptr noundef nonnull %67) #16
  %70 = ptrtoint ptr %69 to i64
  store i64 %70, ptr %26, align 16
  br label %72

71:                                               ; preds = %65
  store i8 1, ptr %27, align 1
  br label %72

72:                                               ; preds = %71, %68
  %73 = getelementptr inbounds i8, ptr %.sroa.0.054, i64 -40
  %74 = load ptr, ptr %73, align 8
  %.not49 = icmp eq ptr %74, null
  br i1 %.not49, label %78, label %75

75:                                               ; preds = %72
  %76 = call ptr @cstring_to_text(ptr noundef nonnull %74) #16
  %77 = ptrtoint ptr %76 to i64
  store i64 %77, ptr %28, align 8
  br label %79

78:                                               ; preds = %72
  store i8 1, ptr %29, align 1
  br label %79

79:                                               ; preds = %78, %75
  %80 = getelementptr inbounds i8, ptr %.sroa.0.054, i64 -24
  %81 = load ptr, ptr %80, align 8
  %.not50 = icmp eq ptr %81, null
  br i1 %.not50, label %93, label %82

82:                                               ; preds = %79
  %83 = call ptr @strlist_to_textarray(ptr noundef nonnull %81) #16
  %84 = ptrtoint ptr %83 to i64
  store i64 %84, ptr %30, align 16
  %85 = getelementptr inbounds i8, ptr %.sroa.0.054, i64 -16
  %86 = load ptr, ptr %85, align 8
  %.not51 = icmp eq ptr %86, null
  br i1 %.not51, label %90, label %87

87:                                               ; preds = %82
  %88 = call ptr @strlist_to_textarray(ptr noundef nonnull %86) #16
  %89 = ptrtoint ptr %88 to i64
  store i64 %89, ptr %31, align 8
  br label %94

90:                                               ; preds = %82
  %91 = call ptr @construct_empty_array(i32 noundef 25) #16
  %92 = ptrtoint ptr %91 to i64
  store i64 %92, ptr %31, align 8
  br label %94

93:                                               ; preds = %79
  store i8 1, ptr %32, align 1
  store i8 1, ptr %33, align 1
  br label %94

94:                                               ; preds = %87, %90, %93
  %95 = load ptr, ptr %34, align 8
  %96 = load ptr, ptr %35, align 8
  call void @tuplestore_putvalues(ptr noundef %95, ptr noundef %96, ptr noundef nonnull %2, ptr noundef nonnull %3) #16
  call void @llvm.lifetime.end.p0(i64 12, ptr nonnull %3) #16
  call void @llvm.lifetime.end.p0(i64 96, ptr nonnull %2) #16
  %.sroa.0.0 = load ptr, ptr %.sroa.0.054, align 8
  %.not46 = icmp eq ptr %.sroa.0.0, null
  br i1 %.not46, label %._crit_edge, label %36, !llvm.loop !13

._crit_edge:                                      ; preds = %94, %15
  ret i64 0
}